; Function Attrs: mustprogress nounwind uwtable
define void @_ZN4LIEF5MachO8DyldInfoC2Ev(ptr noundef nonnull align 8 dereferenceable(240) %0) unnamed_addr #1 align 2 {
  tail call void @_ZN4LIEF6ObjectC2Ev(ptr noundef nonnull align 8 dereferenceable(56) %0) #24
  %2 = getelementptr inbounds nuw i8, ptr %0, i64 8
  %3 = getelementptr inbounds nuw i8, ptr %0, i64 48
  store i64 0, ptr %3, align 8, !tbaa !3
  tail call void @llvm.memset.p0.i64(ptr noundef nonnull align 8 dereferenceable(36) %2, i8 0, i64 36, i1 false)
  store ptr getelementptr inbounds nuw inrange(-16, 56) (i8, ptr @_ZTVN4LIEF5MachO8DyldInfoE, i64 16), ptr %0, align 8, !tbaa !17
  %4 = getelementptr inbounds nuw i8, ptr %0, i64 56
  %5 = getelementptr inbounds nuw i8, ptr %0, i64 232
  store ptr null, ptr %5, align 8, !tbaa !19
  tail call void @llvm.memset.p0.i64(ptr noundef nonnull align 8 dereferenceable(172) %4, i8 0, i64 172, i1 false)
  ret void
}